target datalayout = "e-m:e-p270:32:32-p271:32:32-p272:64:64-i64:64-i128:128-f80:128-n8:16:32:64-S128"
target triple = "x86_64-pc-linux-gnu"

%struct.ItemPointerData = type { %struct.BlockIdData, i16 }
%struct.BlockIdData = type { i16, i16 }
%struct.nameData = type { [64 x i8] }
%struct.SnapshotData = type { i32, i32, i32, ptr, i32, ptr, i32, i8, i8, i8, i32, i32, ptr, i32, i32, %struct.pairingheap_node, i64 }
%struct.pairingheap_node = type { ptr, ptr, ptr }
%struct.IndexScanDescData = type { ptr, ptr, ptr, i32, i32, ptr, ptr, i8, i8, i8, i8, i8, ptr, ptr, ptr, ptr, ptr, %struct.ItemPointerData, i8, ptr, i8, ptr, ptr, i8, ptr }
%struct.RelationData = type { %struct.RelFileLocator, ptr, i32, i32, i8, i8, i8, i8, i8, i32, i32, i32, i32, ptr, ptr, i32, %struct.LockInfoData, ptr, ptr, ptr, ptr, ptr, i8, ptr, ptr, ptr, ptr, ptr, ptr, i32, ptr, i8, ptr, ptr, i32, i8, i32, ptr, i8, ptr, ptr, ptr, ptr, ptr, ptr, ptr, i32, ptr, ptr, ptr, ptr, ptr, ptr, ptr, ptr, ptr, ptr, ptr, ptr, ptr, ptr, ptr, ptr, ptr, ptr, ptr, i32, i8, ptr }
%struct.RelFileLocator = type { i32, i32, i32 }
%struct.LockInfoData = type { %struct.LockRelId }
%struct.LockRelId = type { i32, i32 }
%struct.FormData_pg_class = type { i32, %struct.nameData, i32, i32, i32, i32, i32, i32, i32, i32, float, i32, i32, i8, i8, i8, i8, i16, i16, i8, i8, i8, i8, i8, i8, i8, i8, i32, i32, i32 }
%struct.TupleTableSlot = type { i32, i16, i16, ptr, ptr, ptr, ptr, ptr, %struct.ItemPointerData, i32 }
%struct.TupleTableSlotOps = type { i64, ptr, ptr, ptr, ptr, ptr, ptr, ptr, ptr, ptr, ptr, ptr, ptr }

@.str.1 = private unnamed_addr constant [11 x i8] c"selfuncs.c\00", align 1
@CurrentMemoryContext = external global ptr, align 8
@.str.17 = private unnamed_addr constant [37 x i8] c"no data returned for index-only scan\00", align 1
@__func__.get_actual_variable_endpoint = private unnamed_addr constant [29 x i8] c"get_actual_variable_endpoint\00", align 1
@.str.18 = private unnamed_addr constant [41 x i8] c"unexpected recheck indication from btree\00", align 1
@.str.19 = private unnamed_addr constant [42 x i8] c"found unexpected null value in index \22%s\22\00", align 1

; Function Attrs: inlinehint nounwind uwtable
define internal i32 @BlockIdGetBlockNumber(ptr noundef %0) #1 {
  %2 = alloca ptr, align 8
  store ptr %0, ptr %2, align 8
  %3 = load ptr, ptr %2, align 8
  %4 = getelementptr inbounds nuw %struct.BlockIdData, ptr %3, i32 0, i32 0
  %5 = load i16, ptr %4, align 2
  %6 = zext i16 %5 to i32
  %7 = shl i32 %6, 16
  %8 = load ptr, ptr %2, align 8
  %9 = getelementptr inbounds nuw %struct.BlockIdData, ptr %8, i32 0, i32 1
  %10 = load i16, ptr %9, align 2
  %11 = zext i16 %10 to i32
  %12 = or i32 %7, %11
  ret i32 %12
}

; Function Attrs: inlinehint nounwind uwtable
define internal i32 @ItemPointerGetBlockNumberNoCheck(ptr noundef %0) #1 {
  %2 = alloca ptr, align 8
  store ptr %0, ptr %2, align 8
  %3 = load ptr, ptr %2, align 8
  %4 = getelementptr inbounds nuw %struct.ItemPointerData, ptr %3, i32 0, i32 0
  %5 = call i32 @BlockIdGetBlockNumber(ptr noundef %4)
  ret i32 %5
}

; Function Attrs: inlinehint nounwind uwtable
define internal ptr @MemoryContextSwitchTo(ptr noundef %0) #1 {
  %2 = alloca ptr, align 8
  %3 = alloca ptr, align 8
  store ptr %0, ptr %2, align 8
  call void @llvm.lifetime.start.p0(i64 8, ptr %3) #10
  %4 = load ptr, ptr @CurrentMemoryContext, align 8
  store ptr %4, ptr %3, align 8
  %5 = load ptr, ptr %2, align 8
  store ptr %5, ptr @CurrentMemoryContext, align 8
  %6 = load ptr, ptr %3, align 8
  call void @llvm.lifetime.end.p0(i64 8, ptr %3) #10
  ret ptr %6
}

; Function Attrs: inlinehint nounwind uwtable
define internal ptr @ExecClearTuple(ptr noundef %0) #1 {
  %2 = alloca ptr, align 8
  store ptr %0, ptr %2, align 8
  %3 = load ptr, ptr %2, align 8
  %4 = getelementptr inbounds nuw %struct.TupleTableSlot, ptr %3, i32 0, i32 3
  %5 = load ptr, ptr %4, align 8
  %6 = getelementptr inbounds nuw %struct.TupleTableSlotOps, ptr %5, i32 0, i32 3
  %7 = load ptr, ptr %6, align 8
  %8 = load ptr, ptr %2, align 8
  call void %7(ptr noundef %8)
  %9 = load ptr, ptr %2, align 8
  ret ptr %9
}

; Function Attrs: inlinehint nounwind uwtable
define internal i32 @ItemPointerGetBlockNumber(ptr noundef %0) #1 {
  %2 = alloca ptr, align 8
  store ptr %0, ptr %2, align 8
  %3 = load ptr, ptr %2, align 8
  %4 = call i32 @ItemPointerGetBlockNumberNoCheck(ptr noundef %3)
  ret i32 %4
}

; Function Attrs: nounwind uwtable
define internal zeroext i1 @get_actual_variable_endpoint(ptr noundef %0, ptr noundef %1, i32 noundef %2, ptr noundef %3, i16 noundef signext %4, i1 noundef zeroext %5, ptr noundef %6, ptr noundef %7, ptr noundef %8) #0 {
  %10 = alloca ptr, align 8
  %11 = alloca ptr, align 8
  %12 = alloca i32, align 4
  %13 = alloca ptr, align 8
  %14 = alloca i16, align 2
  %15 = alloca i8, align 1
  %16 = alloca ptr, align 8
  %17 = alloca ptr, align 8
  %18 = alloca ptr, align 8
  %19 = alloca i8, align 1
  %20 = alloca %struct.SnapshotData, align 8
  %21 = alloca ptr, align 8
  %22 = alloca i32, align 4
  %23 = alloca i32, align 4
  %24 = alloca i32, align 4
  %25 = alloca ptr, align 8
  %26 = alloca [32 x i64], align 16
  %27 = alloca [32 x i8], align 16
  %28 = alloca ptr, align 8
  %29 = alloca i32, align 4
  %30 = alloca i32, align 4
  store ptr %0, ptr %10, align 8
  store ptr %1, ptr %11, align 8
  store i32 %2, ptr %12, align 4
  store ptr %3, ptr %13, align 8
  store i16 %4, ptr %14, align 2
  %31 = zext i1 %5 to i8
  store i8 %31, ptr %15, align 1
  store ptr %6, ptr %16, align 8
  store ptr %7, ptr %17, align 8
  store ptr %8, ptr %18, align 8
  call void @llvm.lifetime.start.p0(i64 1, ptr %19) #10
  store i8 0, ptr %19, align 1
  call void @llvm.lifetime.start.p0(i64 104, ptr %20) #10
  call void @llvm.lifetime.start.p0(i64 8, ptr %21) #10
  call void @llvm.lifetime.start.p0(i64 4, ptr %22) #10
  store i32 0, ptr %22, align 4
  call void @llvm.lifetime.start.p0(i64 4, ptr %23) #10
  store i32 -1, ptr %23, align 4
  call void @llvm.lifetime.start.p0(i64 4, ptr %24) #10
  store i32 0, ptr %24, align 4
  call void @llvm.lifetime.start.p0(i64 8, ptr %25) #10
  call void @llvm.lifetime.start.p0(i64 256, ptr %26) #10
  call void @llvm.lifetime.start.p0(i64 32, ptr %27) #10
  call void @llvm.lifetime.start.p0(i64 8, ptr %28) #10
  %32 = getelementptr inbounds nuw %struct.SnapshotData, ptr %20, i32 0, i32 0
  store i32 6, ptr %32, align 8
  %33 = load ptr, ptr %10, align 8
  %34 = call ptr @GlobalVisTestFor(ptr noundef %33)
  %35 = getelementptr inbounds nuw %struct.SnapshotData, ptr %20, i32 0, i32 12
  store ptr %34, ptr %35, align 8
  %36 = load ptr, ptr %10, align 8
  %37 = load ptr, ptr %11, align 8
  %38 = call ptr @index_beginscan(ptr noundef %36, ptr noundef %37, ptr noundef %20, i32 noundef 1, i32 noundef 0)
  store ptr %38, ptr %21, align 8
  %39 = load ptr, ptr %21, align 8
  %40 = getelementptr inbounds nuw %struct.IndexScanDescData, ptr %39, i32 0, i32 7
  store i8 1, ptr %40, align 8
  %41 = load ptr, ptr %21, align 8
  %42 = load ptr, ptr %13, align 8
  call void @index_rescan(ptr noundef %41, ptr noundef %42, i32 noundef 1, ptr noundef null, i32 noundef 0)
  br label %43

43:                                               ; preds = %151, %9
  %44 = load ptr, ptr %21, align 8
  %45 = load i32, ptr %12, align 4
  %46 = call ptr @index_getnext_tid(ptr noundef %44, i32 noundef %45)
  store ptr %46, ptr %25, align 8
  %47 = icmp ne ptr %46, null
  br i1 %47, label %48, label %153

48:                                               ; preds = %43
  call void @llvm.lifetime.start.p0(i64 4, ptr %29) #10
  %49 = load ptr, ptr %25, align 8
  %50 = call i32 @ItemPointerGetBlockNumber(ptr noundef %49)
  store i32 %50, ptr %29, align 4
  %51 = load ptr, ptr %10, align 8
  %52 = load i32, ptr %29, align 4
  %53 = call zeroext i8 @visibilitymap_get_status(ptr noundef %51, i32 noundef %52, ptr noundef %22)
  %54 = zext i8 %53 to i32
  %55 = and i32 %54, 1
  %56 = icmp ne i32 %55, 0
  br i1 %56, label %77, label %57

57:                                               ; preds = %48
  %58 = load ptr, ptr %21, align 8
  %59 = load ptr, ptr %16, align 8
  %60 = call zeroext i1 @index_fetch_heap(ptr noundef %58, ptr noundef %59)
  br i1 %60, label %74, label %61

61:                                               ; preds = %57
  %62 = load i32, ptr %29, align 4
  %63 = load i32, ptr %23, align 4
  %64 = icmp ne i32 %62, %63
  br i1 %64, label %65, label %73

65:                                               ; preds = %61
  %66 = load i32, ptr %29, align 4
  store i32 %66, ptr %23, align 4
  %67 = load i32, ptr %24, align 4
  %68 = add i32 %67, 1
  store i32 %68, ptr %24, align 4
  %69 = load i32, ptr %24, align 4
  %70 = icmp sgt i32 %69, 100
  br i1 %70, label %71, label %72

71:                                               ; preds = %65
  store i32 3, ptr %30, align 4
  br label %151

72:                                               ; preds = %65
  br label %73

73:                                               ; preds = %72, %61
  store i32 2, ptr %30, align 4
  br label %151, !llvm.loop !70

74:                                               ; preds = %57
  %75 = load ptr, ptr %16, align 8
  %76 = call ptr @ExecClearTuple(ptr noundef %75)
  br label %77

77:                                               ; preds = %74, %48
  %78 = load ptr, ptr %21, align 8
  %79 = getelementptr inbounds nuw %struct.IndexScanDescData, ptr %78, i32 0, i32 13
  %80 = load ptr, ptr %79, align 8
  %81 = icmp ne ptr %80, null
  br i1 %81, label %93, label %82

82:                                               ; preds = %77
  br label %83

83:                                               ; preds = %82
  br i1 true, label %84, label %86

84:                                               ; preds = %83
  %85 = call zeroext i1 @errstart_cold(i32 noundef 21, ptr noundef null) #11
  br i1 %85, label %88, label %90

86:                                               ; preds = %83
  %87 = call zeroext i1 @errstart(i32 noundef 21, ptr noundef null)
  br i1 %87, label %88, label %90

88:                                               ; preds = %86, %84
  %89 = call i32 (ptr, ...) @errmsg_internal(ptr noundef @.str.17)
  call void @errfinish(ptr noundef @.str.1, i32 noundef 6425, ptr noundef @__func__.get_actual_variable_endpoint)
  br label %90

90:                                               ; preds = %88, %86, %84
  unreachable

91:                                               ; No predecessors!
  br label %92

92:                                               ; preds = %91
  br label %93

93:                                               ; preds = %92, %77
  %94 = load ptr, ptr %21, align 8
  %95 = getelementptr inbounds nuw %struct.IndexScanDescData, ptr %94, i32 0, i32 20
  %96 = load i8, ptr %95, align 8, !range !4, !noundef !5
  %97 = trunc i8 %96 to i1
  br i1 %97, label %98, label %109

98:                                               ; preds = %93
  br label %99

99:                                               ; preds = %98
  br i1 true, label %100, label %102

100:                                              ; preds = %99
  %101 = call zeroext i1 @errstart_cold(i32 noundef 21, ptr noundef null) #11
  br i1 %101, label %104, label %106

102:                                              ; preds = %99
  %103 = call zeroext i1 @errstart(i32 noundef 21, ptr noundef null)
  br i1 %103, label %104, label %106

104:                                              ; preds = %102, %100
  %105 = call i32 (ptr, ...) @errmsg_internal(ptr noundef @.str.18)
  call void @errfinish(ptr noundef @.str.1, i32 noundef 6427, ptr noundef @__func__.get_actual_variable_endpoint)
  br label %106

106:                                              ; preds = %104, %102, %100
  unreachable

107:                                              ; No predecessors!
  br label %108

108:                                              ; preds = %107
  br label %109

109:                                              ; preds = %108, %93
  %110 = load ptr, ptr %21, align 8
  %111 = getelementptr inbounds nuw %struct.IndexScanDescData, ptr %110, i32 0, i32 13
  %112 = load ptr, ptr %111, align 8
  %113 = load ptr, ptr %21, align 8
  %114 = getelementptr inbounds nuw %struct.IndexScanDescData, ptr %113, i32 0, i32 14
  %115 = load ptr, ptr %114, align 8
  %116 = getelementptr inbounds [32 x i64], ptr %26, i64 0, i64 0
  %117 = getelementptr inbounds [32 x i8], ptr %27, i64 0, i64 0
  call void @index_deform_tuple(ptr noundef %112, ptr noundef %115, ptr noundef %116, ptr noundef %117)
  %118 = getelementptr inbounds [32 x i8], ptr %27, i64 0, i64 0
  %119 = load i8, ptr %118, align 16, !range !4, !noundef !5
  %120 = trunc i8 %119 to i1
  br i1 %120, label %121, label %138

121:                                              ; preds = %109
  br label %122

122:                                              ; preds = %121
  br i1 true, label %123, label %125

123:                                              ; preds = %122
  %124 = call zeroext i1 @errstart_cold(i32 noundef 21, ptr noundef null) #11
  br i1 %124, label %127, label %135

125:                                              ; preds = %122
  %126 = call zeroext i1 @errstart(i32 noundef 21, ptr noundef null)
  br i1 %126, label %127, label %135

127:                                              ; preds = %125, %123
  %128 = load ptr, ptr %11, align 8
  %129 = getelementptr inbounds nuw %struct.RelationData, ptr %128, i32 0, i32 13
  %130 = load ptr, ptr %129, align 8
  %131 = getelementptr inbounds nuw %struct.FormData_pg_class, ptr %130, i32 0, i32 1
  %132 = getelementptr inbounds nuw %struct.nameData, ptr %131, i32 0, i32 0
  %133 = getelementptr inbounds [64 x i8], ptr %132, i64 0, i64 0
  %134 = call i32 (ptr, ...) @errmsg_internal(ptr noundef @.str.19, ptr noundef %133)
  call void @errfinish(ptr noundef @.str.1, i32 noundef 6437, ptr noundef @__func__.get_actual_variable_endpoint)
  br label %135

135:                                              ; preds = %127, %125, %123
  unreachable

136:                                              ; No predecessors!
  br label %137

137:                                              ; preds = %136
  br label %138

138:                                              ; preds = %137, %109
  %139 = load ptr, ptr %17, align 8
  %140 = call ptr @MemoryContextSwitchTo(ptr noundef %139)
  store ptr %140, ptr %28, align 8
  %141 = getelementptr inbounds [32 x i64], ptr %26, i64 0, i64 0
  %142 = load i64, ptr %141, align 16
  %143 = load i8, ptr %15, align 1, !range !4, !noundef !5
  %144 = trunc i8 %143 to i1
  %145 = load i16, ptr %14, align 2
  %146 = sext i16 %145 to i32
  %147 = call i64 @datumCopy(i64 noundef %142, i1 noundef zeroext %144, i32 noundef %146)
  %148 = load ptr, ptr %18, align 8
  store i64 %147, ptr %148, align 8
  %149 = load ptr, ptr %28, align 8
  %150 = call ptr @MemoryContextSwitchTo(ptr noundef %149)
  store i8 1, ptr %19, align 1
  store i32 3, ptr %30, align 4
  br label %151

151:                                              ; preds = %138, %73, %71
  call void @llvm.lifetime.end.p0(i64 4, ptr %29) #10
  %152 = load i32, ptr %30, align 4
  switch i32 %152, label %162 [
    i32 3, label %153
    i32 2, label %43
  ]

153:                                              ; preds = %151, %43
  %154 = load i32, ptr %22, align 4
  %155 = icmp ne i32 %154, 0
  br i1 %155, label %156, label %158

156:                                              ; preds = %153
  %157 = load i32, ptr %22, align 4
  call void @ReleaseBuffer(i32 noundef %157)
  br label %158

158:                                              ; preds = %156, %153
  %159 = load ptr, ptr %21, align 8
  call void @index_endscan(ptr noundef %159)
  %160 = load i8, ptr %19, align 1, !range !4, !noundef !5
  %161 = trunc i8 %160 to i1
  store i32 1, ptr %30, align 4
  call void @llvm.lifetime.end.p0(i64 8, ptr %28) #10
  call void @llvm.lifetime.end.p0(i64 32, ptr %27) #10
  call void @llvm.lifetime.end.p0(i64 256, ptr %26) #10
  call void @llvm.lifetime.end.p0(i64 8, ptr %25) #10
  call void @llvm.lifetime.end.p0(i64 4, ptr %24) #10
  call void @llvm.lifetime.end.p0(i64 4, ptr %23) #10
  call void @llvm.lifetime.end.p0(i64 4, ptr %22) #10
  call void @llvm.lifetime.end.p0(i64 8, ptr %21) #10
  call void @llvm.lifetime.end.p0(i64 104, ptr %20) #10
  call void @llvm.lifetime.end.p0(i64 1, ptr %19) #10
  ret i1 %161

162:                                              ; preds = %151
  unreachable
}