; Function Attrs: nounwind uwtable
define internal fastcc noundef zeroext i1 @get_actual_variable_endpoint(ptr noundef %0, ptr noundef %1, i32 noundef range(i32 -1, 2) %2, ptr noundef nonnull %3, i16 noundef signext %4, i1 noundef zeroext %5, ptr noundef %6, ptr noundef %7, ptr noundef nonnull writeonly captures(none) %8) unnamed_addr #0 {
  %10 = alloca %struct.SnapshotData, align 8
  %11 = alloca i32, align 4
  %12 = alloca [32 x i64], align 16
  %13 = alloca [32 x i8], align 16
  call void @llvm.lifetime.start.p0(i64 104, ptr nonnull %10) #12
  call void @llvm.lifetime.start.p0(i64 4, ptr nonnull %11) #12
  store i32 0, ptr %11, align 4
  call void @llvm.lifetime.start.p0(i64 256, ptr nonnull %12) #12
  call void @llvm.lifetime.start.p0(i64 32, ptr nonnull %13) #12
  store i32 6, ptr %10, align 8
  %14 = tail call ptr @GlobalVisTestFor(ptr noundef %0) #12
  %15 = getelementptr inbounds nuw i8, ptr %10, i64 56
  store ptr %14, ptr %15, align 8
  %16 = call ptr @index_beginscan(ptr noundef %0, ptr noundef %1, ptr noundef nonnull %10, i32 noundef 1, i32 noundef 0) #12
  %17 = getelementptr inbounds nuw i8, ptr %16, i64 48
  store i8 1, ptr %17, align 8
  call void @index_rescan(ptr noundef %16, ptr noundef nonnull %3, i32 noundef 1, ptr noundef null, i32 noundef 0) #12
  br label %18

18:                                               ; preds = %30, %9
  %.035 = phi i32 [ 0, %9 ], [ %.237, %30 ]
  %.032 = phi i32 [ -1, %9 ], [ %25, %30 ]
  %19 = call ptr @index_getnext_tid(ptr noundef %16, i32 noundef %2) #12
  %.not = icmp eq ptr %19, null
  br i1 %.not, label %.loopexit, label %20

20:                                               ; preds = %18
  %.val = load i16, ptr %19, align 2
  %21 = getelementptr i8, ptr %19, i64 2
  %.val48 = load i16, ptr %21, align 2
  %22 = zext i16 %.val to i32
  %23 = shl nuw i32 %22, 16
  %24 = zext i16 %.val48 to i32
  %25 = or disjoint i32 %23, %24
  %26 = call zeroext i8 @visibilitymap_get_status(ptr noundef %0, i32 noundef %25, ptr noundef nonnull %11) #12
  %27 = and i8 %26, 1
  %.not44 = icmp eq i8 %27, 0
  br i1 %.not44, label %28, label %.loopexit56

28:                                               ; preds = %20
  %29 = call zeroext i1 @index_fetch_heap(ptr noundef %16, ptr noundef %6) #12
  br i1 %29, label %33, label %30

30:                                               ; preds = %28
  %.not45 = icmp ne i32 %25, %.032
  %31 = add i32 %.035, 1
  %32 = icmp sgt i32 %31, 100
  %.237 = select i1 %.not45, i32 %31, i32 %.035
  %narrow.not = select i1 %.not45, i1 %32, i1 false
  br i1 %narrow.not, label %.loopexit, label %18

33:                                               ; preds = %28
  %34 = getelementptr inbounds nuw i8, ptr %6, i64 8
  %35 = load ptr, ptr %34, align 8
  %36 = getelementptr inbounds nuw i8, ptr %35, i64 24
  %37 = load ptr, ptr %36, align 8
  call void %37(ptr noundef %6) #12
  br label %.loopexit56

.loopexit56:                                      ; preds = %20, %33
  %38 = getelementptr inbounds nuw i8, ptr %16, i64 64
  %39 = load ptr, ptr %38, align 8
  %.not46 = icmp eq ptr %39, null
  br i1 %.not46, label %40, label %43

40:                                               ; preds = %.loopexit56
  %41 = call zeroext i1 @errstart_cold(i32 noundef 21, ptr noundef null) #14
  call void @llvm.assume(i1 %41)
  %42 = call i32 (ptr, ...) @errmsg_internal(ptr noundef nonnull @.str.17) #12
  call void @errfinish(ptr noundef nonnull @.str.1, i32 noundef 6425, ptr noundef nonnull @__func__.get_actual_variable_endpoint) #12
  unreachable

43:                                               ; preds = %.loopexit56
  %44 = getelementptr inbounds nuw i8, ptr %16, i64 112
  %45 = load i8, ptr %44, align 8, !range !4, !noundef !5
  %46 = trunc nuw i8 %45 to i1
  br i1 %46, label %47, label %50

47:                                               ; preds = %43
  %48 = call zeroext i1 @errstart_cold(i32 noundef 21, ptr noundef null) #14
  call void @llvm.assume(i1 %48)
  %49 = call i32 (ptr, ...) @errmsg_internal(ptr noundef nonnull @.str.18) #12
  call void @errfinish(ptr noundef nonnull @.str.1, i32 noundef 6427, ptr noundef nonnull @__func__.get_actual_variable_endpoint) #12
  unreachable

50:                                               ; preds = %43
  %51 = getelementptr inbounds nuw i8, ptr %16, i64 72
  %52 = load ptr, ptr %51, align 8
  call void @index_deform_tuple(ptr noundef nonnull %39, ptr noundef %52, ptr noundef nonnull %12, ptr noundef nonnull %13) #12
  %53 = load i8, ptr %13, align 16, !range !4, !noundef !5
  %54 = trunc nuw i8 %53 to i1
  br i1 %54, label %55, label %.thread

55:                                               ; preds = %50
  %56 = call zeroext i1 @errstart_cold(i32 noundef 21, ptr noundef null) #14
  call void @llvm.assume(i1 %56)
  %57 = getelementptr inbounds nuw i8, ptr %1, i64 56
  %58 = load ptr, ptr %57, align 8
  %59 = getelementptr inbounds nuw i8, ptr %58, i64 4
  %60 = call i32 (ptr, ...) @errmsg_internal(ptr noundef nonnull @.str.19, ptr noundef nonnull %59) #12
  call void @errfinish(ptr noundef nonnull @.str.1, i32 noundef 6437, ptr noundef nonnull @__func__.get_actual_variable_endpoint) #12
  unreachable

.thread:                                          ; preds = %50
  %61 = load ptr, ptr @CurrentMemoryContext, align 8
  store ptr %7, ptr @CurrentMemoryContext, align 8
  %62 = load i64, ptr %12, align 16
  %63 = sext i16 %4 to i32
  %64 = call i64 @datumCopy(i64 noundef %62, i1 noundef zeroext %5, i32 noundef %63) #12
  store i64 %64, ptr %8, align 8
  store ptr %61, ptr @CurrentMemoryContext, align 8
  br label %.loopexit

.loopexit:                                        ; preds = %30, %18, %.thread
  %.1 = phi i1 [ true, %.thread ], [ false, %18 ], [ false, %30 ]
  %65 = load i32, ptr %11, align 4
  %.not47 = icmp eq i32 %65, 0
  br i1 %.not47, label %67, label %66

66:                                               ; preds = %.loopexit
  call void @ReleaseBuffer(i32 noundef %65) #12
  br label %67

67:                                               ; preds = %66, %.loopexit
  call void @index_endscan(ptr noundef %16) #12
  call void @llvm.lifetime.end.p0(i64 32, ptr nonnull %13) #12
  call void @llvm.lifetime.end.p0(i64 256, ptr nonnull %12) #12
  call void @llvm.lifetime.end.p0(i64 4, ptr nonnull %11) #12
  call void @llvm.lifetime.end.p0(i64 104, ptr nonnull %10) #12
  ret i1 %.1
}